target datalayout = "e-m:e-p270:32:32-p271:32:32-p272:64:64-i64:64-i128:128-f80:128-n8:16:32:64-S128"
target triple = "x86_64-unknown-linux-gnu"

%class.mpf = type { i32, %class.mpz, i64 }
%class.mpz = type { i32, i8, ptr }
%class.mpf_manager = type { %class.mpq_manager, ptr, %"class.mpf_manager::powers2" }
%class.mpq_manager = type { %class.mpz_manager, %class.mpz, %class.mpz, %class.mpz, %class.mpz, %class.mpq, %class.mpq }
%class.mpz_manager = type { %class.small_object_allocator, %"class.std::recursive_mutex", %class.mpn_manager, i32, %class.mpz, %class.mpz }
%class.small_object_allocator = type { [32 x ptr], [32 x ptr], i64 }
%"class.std::recursive_mutex" = type { %"class.std::__recursive_mutex_base" }
%"class.std::__recursive_mutex_base" = type { %union.pthread_mutex_t }
%union.pthread_mutex_t = type { %struct.__pthread_mutex_s }
%struct.__pthread_mutex_s = type { i32, i32, i32, i32, i32, i16, i16, %struct.__pthread_internal_list }
%struct.__pthread_internal_list = type { ptr, ptr }
%class.mpn_manager = type { i8 }
%class.mpq = type { %class.mpz, %class.mpz }
%"class.mpf_manager::powers2" = type { ptr, %class.u_map, %class.u_map, %class.u_map, %class.u_map }
%class.u_map = type { %class.map }
%class.map = type { %class.table2map }
%class.table2map = type { %class.core_hashtable }
%class.core_hashtable = type <{ ptr, i32, i32, i32, [4 x i8] }>

; Function Attrs: mustprogress uwtable
define hidden noundef i64 @_ZN11mpf_manager10mk_bot_expEj(ptr noundef nonnull align 8 dereferenceable(840) %this, i32 noundef %ebits) #4 align 2 {
entry:
  %this.addr = alloca ptr, align 8
  %ebits.addr = alloca i32, align 4
  store ptr %this, ptr %this.addr, align 8
  store i32 %ebits, ptr %ebits.addr, align 4
  %this1 = load ptr, ptr %this.addr, align 8
  %m_mpz_manager = getelementptr inbounds %class.mpf_manager, ptr %this1, i32 0, i32 1
  %0 = load ptr, ptr %m_mpz_manager, align 8
  %m_powers2 = getelementptr inbounds %class.mpf_manager, ptr %this1, i32 0, i32 2
  %1 = load i32, ptr %ebits.addr, align 4
  %sub = sub i32 %1, 1
  %call = call noundef nonnull align 8 dereferenceable(16) ptr @_ZN11mpf_manager7powers22m1Ejb(ptr noundef nonnull align 8 dereferenceable(104) %m_powers2, i32 noundef %sub, i1 noundef zeroext true)
  %call2 = call noundef i64 @_ZNK11mpz_managerILb0EE9get_int64ERK3mpz(ptr noundef nonnull align 8 dereferenceable(600) %0, ptr noundef nonnull align 8 dereferenceable(16) %call)
  ret i64 %call2
}

; Function Attrs: mustprogress nounwind uwtable
define linkonce_odr hidden noundef i32 @_ZN11mpz_managerILb0EE4signERK3mpz(ptr noundef nonnull align 8 dereferenceable(16) %a) #5 comdat align 2 {
entry:
  %a.addr = alloca ptr, align 8
  store ptr %a, ptr %a.addr, align 8
  %0 = load ptr, ptr %a.addr, align 8
  %m_val = getelementptr inbounds %class.mpz, ptr %0, i32 0, i32 0
  %1 = load i32, ptr %m_val, align 8
  ret i32 %1
}

; Function Attrs: mustprogress uwtable
define hidden noundef i64 @_ZN11mpf_manager10mk_top_expEj(ptr noundef nonnull align 8 dereferenceable(840) %this, i32 noundef %ebits) #4 align 2 {
entry:
  %this.addr = alloca ptr, align 8
  %ebits.addr = alloca i32, align 4
  store ptr %this, ptr %this.addr, align 8
  store i32 %ebits, ptr %ebits.addr, align 4
  %this1 = load ptr, ptr %this.addr, align 8
  %m_mpz_manager = getelementptr inbounds %class.mpf_manager, ptr %this1, i32 0, i32 1
  %0 = load ptr, ptr %m_mpz_manager, align 8
  %m_powers2 = getelementptr inbounds %class.mpf_manager, ptr %this1, i32 0, i32 2
  %1 = load i32, ptr %ebits.addr, align 4
  %sub = sub i32 %1, 1
  %call = call noundef nonnull align 8 dereferenceable(16) ptr @_ZN11mpf_manager7powers2clEjb(ptr noundef nonnull align 8 dereferenceable(104) %m_powers2, i32 noundef %sub, i1 noundef zeroext false)
  %call2 = call noundef i64 @_ZNK11mpz_managerILb0EE9get_int64ERK3mpz(ptr noundef nonnull align 8 dereferenceable(600) %0, ptr noundef nonnull align 8 dereferenceable(16) %call)
  ret i64 %call2
}

; Function Attrs: mustprogress uwtable
define hidden noundef zeroext i1 @_ZN11mpf_manager11has_bot_expERK3mpf(ptr noundef nonnull align 8 dereferenceable(840) %this, ptr noundef nonnull align 8 dereferenceable(32) %x) #4 align 2 {
entry:
  %this.addr = alloca ptr, align 8
  %x.addr = alloca ptr, align 8
  store ptr %this, ptr %this.addr, align 8
  store ptr %x, ptr %x.addr, align 8
  %this1 = load ptr, ptr %this.addr, align 8
  %0 = load ptr, ptr %x.addr, align 8
  %call = call noundef nonnull align 8 dereferenceable(8) ptr @_ZNK11mpf_manager3expERK3mpf(ptr noundef nonnull align 8 dereferenceable(840) %this1, ptr noundef nonnull align 8 dereferenceable(32) %0)
  %1 = load i64, ptr %call, align 8
  %2 = load ptr, ptr %x.addr, align 8
  %bf.load = load i32, ptr %2, align 8
  %bf.clear = and i32 %bf.load, 32767
  %call2 = call noundef i64 @_ZN11mpf_manager10mk_bot_expEj(ptr noundef nonnull align 8 dereferenceable(840) %this1, i32 noundef %bf.clear)
  %cmp = icmp eq i64 %1, %call2
  ret i1 %cmp
}

; Function Attrs: mustprogress uwtable
define linkonce_odr hidden noundef zeroext i1 @_ZN11mpz_managerILb0EE7is_zeroERK3mpz(ptr noundef nonnull align 8 dereferenceable(16) %a) #4 comdat align 2 {
entry:
  %a.addr = alloca ptr, align 8
  store ptr %a, ptr %a.addr, align 8
  %0 = load ptr, ptr %a.addr, align 8
  %call = call noundef i32 @_ZN11mpz_managerILb0EE4signERK3mpz(ptr noundef nonnull align 8 dereferenceable(16) %0)
  %cmp = icmp eq i32 %call, 0
  ret i1 %cmp
}

; Function Attrs: mustprogress uwtable
define hidden noundef zeroext i1 @_ZN11mpf_manager11has_top_expERK3mpf(ptr noundef nonnull align 8 dereferenceable(840) %this, ptr noundef nonnull align 8 dereferenceable(32) %x) #4 align 2 {
entry:
  %this.addr = alloca ptr, align 8
  %x.addr = alloca ptr, align 8
  store ptr %this, ptr %this.addr, align 8
  store ptr %x, ptr %x.addr, align 8
  %this1 = load ptr, ptr %this.addr, align 8
  %0 = load ptr, ptr %x.addr, align 8
  %call = call noundef nonnull align 8 dereferenceable(8) ptr @_ZNK11mpf_manager3expERK3mpf(ptr noundef nonnull align 8 dereferenceable(840) %this1, ptr noundef nonnull align 8 dereferenceable(32) %0)
  %1 = load i64, ptr %call, align 8
  %2 = load ptr, ptr %x.addr, align 8
  %bf.load = load i32, ptr %2, align 8
  %bf.clear = and i32 %bf.load, 32767
  %call2 = call noundef i64 @_ZN11mpf_manager10mk_top_expEj(ptr noundef nonnull align 8 dereferenceable(840) %this1, i32 noundef %bf.clear)
  %cmp = icmp eq i64 %1, %call2
  ret i1 %cmp
}

; Function Attrs: mustprogress nounwind uwtable
define linkonce_odr hidden noundef nonnull align 8 dereferenceable(16) ptr @_ZNK11mpf_manager3sigERK3mpf(ptr noundef nonnull align 8 dereferenceable(840) %this, ptr noundef nonnull align 8 dereferenceable(32) %x) #5 comdat align 2 {
entry:
  %this.addr = alloca ptr, align 8
  %x.addr = alloca ptr, align 8
  store ptr %this, ptr %this.addr, align 8
  store ptr %x, ptr %x.addr, align 8
  %0 = load ptr, ptr %x.addr, align 8
  %significand = getelementptr inbounds %class.mpf, ptr %0, i32 0, i32 1
  ret ptr %significand
}

; Function Attrs: mustprogress nounwind uwtable
define linkonce_odr hidden noundef nonnull align 8 dereferenceable(8) ptr @_ZNK11mpf_manager3expERK3mpf(ptr noundef nonnull align 8 dereferenceable(840) %this, ptr noundef nonnull align 8 dereferenceable(32) %x) #5 comdat align 2 {
entry:
  %this.addr = alloca ptr, align 8
  %x.addr = alloca ptr, align 8
  store ptr %this, ptr %this.addr, align 8
  store ptr %x, ptr %x.addr, align 8
  %0 = load ptr, ptr %x.addr, align 8
  %exponent = getelementptr inbounds %class.mpf, ptr %0, i32 0, i32 2
  ret ptr %exponent
}

; Function Attrs: mustprogress nounwind uwtable
define linkonce_odr hidden noundef zeroext i1 @_ZNK11mpf_manager3sgnERK3mpf(ptr noundef nonnull align 8 dereferenceable(840) %this, ptr noundef nonnull align 8 dereferenceable(32) %x) #5 comdat align 2 {
entry:
  %this.addr = alloca ptr, align 8
  %x.addr = alloca ptr, align 8
  store ptr %this, ptr %this.addr, align 8
  store ptr %x, ptr %x.addr, align 8
  %0 = load ptr, ptr %x.addr, align 8
  %bf.load = load i32, ptr %0, align 8
  %bf.lshr = lshr i32 %bf.load, 31
  %tobool = icmp ne i32 %bf.lshr, 0
  ret i1 %tobool
}

; Function Attrs: mustprogress uwtable
define hidden noundef zeroext i1 @_ZN11mpf_manager7is_zeroERK3mpf(ptr noundef nonnull align 8 dereferenceable(840) %this, ptr noundef nonnull align 8 dereferenceable(32) %x) #4 align 2 {
entry:
  %this.addr = alloca ptr, align 8
  %x.addr = alloca ptr, align 8
  store ptr %this, ptr %this.addr, align 8
  store ptr %x, ptr %x.addr, align 8
  %this1 = load ptr, ptr %this.addr, align 8
  %0 = load ptr, ptr %x.addr, align 8
  %call = call noundef zeroext i1 @_ZN11mpf_manager11has_bot_expERK3mpf(ptr noundef nonnull align 8 dereferenceable(840) %this1, ptr noundef nonnull align 8 dereferenceable(32) %0)
  br i1 %call, label %land.rhs, label %land.end

land.rhs:                                         ; preds = %entry
  %1 = load ptr, ptr %x.addr, align 8
  %call2 = call noundef nonnull align 8 dereferenceable(16) ptr @_ZNK11mpf_manager3sigERK3mpf(ptr noundef nonnull align 8 dereferenceable(840) %this1, ptr noundef nonnull align 8 dereferenceable(32) %1)
  %call3 = call noundef zeroext i1 @_ZN11mpz_managerILb0EE7is_zeroERK3mpz(ptr noundef nonnull align 8 dereferenceable(16) %call2)
  br label %land.end

land.end:                                         ; preds = %land.rhs, %entry
  %2 = phi i1 [ false, %entry ], [ %call3, %land.rhs ]
  ret i1 %2
}

; Function Attrs: mustprogress uwtable
define hidden noundef zeroext i1 @_ZN11mpf_manager6is_nanERK3mpf(ptr noundef nonnull align 8 dereferenceable(840) %this, ptr noundef nonnull align 8 dereferenceable(32) %x) #4 align 2 {
entry:
  %this.addr = alloca ptr, align 8
  %x.addr = alloca ptr, align 8
  store ptr %this, ptr %this.addr, align 8
  store ptr %x, ptr %x.addr, align 8
  %this1 = load ptr, ptr %this.addr, align 8
  %0 = load ptr, ptr %x.addr, align 8
  %call = call noundef zeroext i1 @_ZN11mpf_manager11has_top_expERK3mpf(ptr noundef nonnull align 8 dereferenceable(840) %this1, ptr noundef nonnull align 8 dereferenceable(32) %0)
  br i1 %call, label %land.rhs, label %land.end

land.rhs:                                         ; preds = %entry
  %1 = load ptr, ptr %x.addr, align 8
  %call2 = call noundef nonnull align 8 dereferenceable(16) ptr @_ZNK11mpf_manager3sigERK3mpf(ptr noundef nonnull align 8 dereferenceable(840) %this1, ptr noundef nonnull align 8 dereferenceable(32) %1)
  %call3 = call noundef zeroext i1 @_ZN11mpz_managerILb0EE7is_zeroERK3mpz(ptr noundef nonnull align 8 dereferenceable(16) %call2)
  %lnot = xor i1 %call3, true
  br label %land.end

land.end:                                         ; preds = %land.rhs, %entry
  %2 = phi i1 [ false, %entry ], [ %lnot, %land.rhs ]
  ret i1 %2
}

; Function Attrs: mustprogress uwtable
define hidden noundef zeroext i1 @_ZN11mpf_manager2ltERK3mpfS2_(ptr noundef nonnull align 8 dereferenceable(840) %this, ptr noundef nonnull align 8 dereferenceable(32) %x, ptr noundef nonnull align 8 dereferenceable(32) %y) #4 align 2 {
entry:
  %retval = alloca i1, align 1
  %this.addr = alloca ptr, align 8
  %x.addr = alloca ptr, align 8
  %y.addr = alloca ptr, align 8
  store ptr %this, ptr %this.addr, align 8
  store ptr %x, ptr %x.addr, align 8
  store ptr %y, ptr %y.addr, align 8
  %this1 = load ptr, ptr %this.addr, align 8
  %0 = load ptr, ptr %x.addr, align 8
  %call = call noundef zeroext i1 @_ZN11mpf_manager6is_nanERK3mpf(ptr noundef nonnull align 8 dereferenceable(840) %this1, ptr noundef nonnull align 8 dereferenceable(32) %0)
  br i1 %call, label %if.then, label %lor.lhs.false

lor.lhs.false:                                    ; preds = %entry
  %1 = load ptr, ptr %y.addr, align 8
  %call2 = call noundef zeroext i1 @_ZN11mpf_manager6is_nanERK3mpf(ptr noundef nonnull align 8 dereferenceable(840) %this1, ptr noundef nonnull align 8 dereferenceable(32) %1)
  br i1 %call2, label %if.then, label %if.else

if.then:                                          ; preds = %lor.lhs.false, %entry
  store i1 false, ptr %retval, align 1
  br label %return

if.else:                                          ; preds = %lor.lhs.false
  %2 = load ptr, ptr %x.addr, align 8
  %call3 = call noundef zeroext i1 @_ZN11mpf_manager7is_zeroERK3mpf(ptr noundef nonnull align 8 dereferenceable(840) %this1, ptr noundef nonnull align 8 dereferenceable(32) %2)
  br i1 %call3, label %land.lhs.true, label %if.else6

land.lhs.true:                                    ; preds = %if.else
  %3 = load ptr, ptr %y.addr, align 8
  %call4 = call noundef zeroext i1 @_ZN11mpf_manager7is_zeroERK3mpf(ptr noundef nonnull align 8 dereferenceable(840) %this1, ptr noundef nonnull align 8 dereferenceable(32) %3)
  br i1 %call4, label %if.then5, label %if.else6

if.then5:                                         ; preds = %land.lhs.true
  store i1 false, ptr %retval, align 1
  br label %return

if.else6:                                         ; preds = %land.lhs.true, %if.else
  %4 = load ptr, ptr %x.addr, align 8
  %call7 = call noundef zeroext i1 @_ZNK11mpf_manager3sgnERK3mpf(ptr noundef nonnull align 8 dereferenceable(840) %this1, ptr noundef nonnull align 8 dereferenceable(32) %4)
  br i1 %call7, label %if.then8, label %if.else20

if.then8:                                         ; preds = %if.else6
  %5 = load ptr, ptr %y.addr, align 8
  %call9 = call noundef zeroext i1 @_ZNK11mpf_manager3sgnERK3mpf(ptr noundef nonnull align 8 dereferenceable(840) %this1, ptr noundef nonnull align 8 dereferenceable(32) %5)
  br i1 %call9, label %if.else11, label %if.then10

if.then10:                                        ; preds = %if.then8
  store i1 true, ptr %retval, align 1
  br label %return

if.else11:                                        ; preds = %if.then8
  %6 = load ptr, ptr %y.addr, align 8
  %call12 = call noundef nonnull align 8 dereferenceable(8) ptr @_ZNK11mpf_manager3expERK3mpf(ptr noundef nonnull align 8 dereferenceable(840) %this1, ptr noundef nonnull align 8 dereferenceable(32) %6)
  %7 = load i64, ptr %call12, align 8
  %8 = load ptr, ptr %x.addr, align 8
  %call13 = call noundef nonnull align 8 dereferenceable(8) ptr @_ZNK11mpf_manager3expERK3mpf(ptr noundef nonnull align 8 dereferenceable(840) %this1, ptr noundef nonnull align 8 dereferenceable(32) %8)
  %9 = load i64, ptr %call13, align 8
  %cmp = icmp slt i64 %7, %9
  br i1 %cmp, label %lor.end, label %lor.rhs

lor.rhs:                                          ; preds = %if.else11
  %10 = load ptr, ptr %y.addr, align 8
  %call14 = call noundef nonnull align 8 dereferenceable(8) ptr @_ZNK11mpf_manager3expERK3mpf(ptr noundef nonnull align 8 dereferenceable(840) %this1, ptr noundef nonnull align 8 dereferenceable(32) %10)
  %11 = load i64, ptr %call14, align 8
  %12 = load ptr, ptr %x.addr, align 8
  %call15 = call noundef nonnull align 8 dereferenceable(8) ptr @_ZNK11mpf_manager3expERK3mpf(ptr noundef nonnull align 8 dereferenceable(840) %this1, ptr noundef nonnull align 8 dereferenceable(32) %12)
  %13 = load i64, ptr %call15, align 8
  %cmp16 = icmp eq i64 %11, %13
  br i1 %cmp16, label %land.rhs, label %land.end

land.rhs:                                         ; preds = %lor.rhs
  %m_mpz_manager = getelementptr inbounds %class.mpf_manager, ptr %this1, i32 0, i32 1
  %14 = load ptr, ptr %m_mpz_manager, align 8
  %15 = load ptr, ptr %y.addr, align 8
  %call17 = call noundef nonnull align 8 dereferenceable(16) ptr @_ZNK11mpf_manager3sigERK3mpf(ptr noundef nonnull align 8 dereferenceable(840) %this1, ptr noundef nonnull align 8 dereferenceable(32) %15)
  %16 = load ptr, ptr %x.addr, align 8
  %call18 = call noundef nonnull align 8 dereferenceable(16) ptr @_ZNK11mpf_manager3sigERK3mpf(ptr noundef nonnull align 8 dereferenceable(840) %this1, ptr noundef nonnull align 8 dereferenceable(32) %16)
  %call19 = call noundef zeroext i1 @_ZN11mpz_managerILb0EE2ltERK3mpzS3_(ptr noundef nonnull align 8 dereferenceable(600) %14, ptr noundef nonnull align 8 dereferenceable(16) %call17, ptr noundef nonnull align 8 dereferenceable(16) %call18)
  br label %land.end

land.end:                                         ; preds = %land.rhs, %lor.rhs
  %17 = phi i1 [ false, %lor.rhs ], [ %call19, %land.rhs ]
  br label %lor.end

lor.end:                                          ; preds = %land.end, %if.else11
  %18 = phi i1 [ true, %if.else11 ], [ %17, %land.end ]
  store i1 %18, ptr %retval, align 1
  br label %return

if.else20:                                        ; preds = %if.else6
  %19 = load ptr, ptr %y.addr, align 8
  %call21 = call noundef zeroext i1 @_ZNK11mpf_manager3sgnERK3mpf(ptr noundef nonnull align 8 dereferenceable(840) %this1, ptr noundef nonnull align 8 dereferenceable(32) %19)
  br i1 %call21, label %if.then22, label %if.else23

if.then22:                                        ; preds = %if.else20
  store i1 false, ptr %retval, align 1
  br label %return

if.else23:                                        ; preds = %if.else20
  %20 = load ptr, ptr %x.addr, align 8
  %call24 = call noundef nonnull align 8 dereferenceable(8) ptr @_ZNK11mpf_manager3expERK3mpf(ptr noundef nonnull align 8 dereferenceable(840) %this1, ptr noundef nonnull align 8 dereferenceable(32) %20)
  %21 = load i64, ptr %call24, align 8
  %22 = load ptr, ptr %y.addr, align 8
  %call25 = call noundef nonnull align 8 dereferenceable(8) ptr @_ZNK11mpf_manager3expERK3mpf(ptr noundef nonnull align 8 dereferenceable(840) %this1, ptr noundef nonnull align 8 dereferenceable(32) %22)
  %23 = load i64, ptr %call25, align 8
  %cmp26 = icmp slt i64 %21, %23
  br i1 %cmp26, label %lor.end37, label %lor.rhs27

lor.rhs27:                                        ; preds = %if.else23
  %24 = load ptr, ptr %x.addr, align 8
  %call28 = call noundef nonnull align 8 dereferenceable(8) ptr @_ZNK11mpf_manager3expERK3mpf(ptr noundef nonnull align 8 dereferenceable(840) %this1, ptr noundef nonnull align 8 dereferenceable(32) %24)
  %25 = load i64, ptr %call28, align 8
  %26 = load ptr, ptr %y.addr, align 8
  %call29 = call noundef nonnull align 8 dereferenceable(8) ptr @_ZNK11mpf_manager3expERK3mpf(ptr noundef nonnull align 8 dereferenceable(840) %this1, ptr noundef nonnull align 8 dereferenceable(32) %26)
  %27 = load i64, ptr %call29, align 8
  %cmp30 = icmp eq i64 %25, %27
  br i1 %cmp30, label %land.rhs31, label %land.end36

land.rhs31:                                       ; preds = %lor.rhs27
  %m_mpz_manager32 = getelementptr inbounds %class.mpf_manager, ptr %this1, i32 0, i32 1
  %28 = load ptr, ptr %m_mpz_manager32, align 8
  %29 = load ptr, ptr %x.addr, align 8
  %call33 = call noundef nonnull align 8 dereferenceable(16) ptr @_ZNK11mpf_manager3sigERK3mpf(ptr noundef nonnull align 8 dereferenceable(840) %this1, ptr noundef nonnull align 8 dereferenceable(32) %29)
  %30 = load ptr, ptr %y.addr, align 8
  %call34 = call noundef nonnull align 8 dereferenceable(16) ptr @_ZNK11mpf_manager3sigERK3mpf(ptr noundef nonnull align 8 dereferenceable(840) %this1, ptr noundef nonnull align 8 dereferenceable(32) %30)
  %call35 = call noundef zeroext i1 @_ZN11mpz_managerILb0EE2ltERK3mpzS3_(ptr noundef nonnull align 8 dereferenceable(600) %28, ptr noundef nonnull align 8 dereferenceable(16) %call33, ptr noundef nonnull align 8 dereferenceable(16) %call34)
  br label %land.end36

land.end36:                                       ; preds = %land.rhs31, %lor.rhs27
  %31 = phi i1 [ false, %lor.rhs27 ], [ %call35, %land.rhs31 ]
  br label %lor.end37

lor.end37:                                        ; preds = %land.end36, %if.else23
  %32 = phi i1 [ true, %if.else23 ], [ %31, %land.end36 ]
  store i1 %32, ptr %retval, align 1
  br label %return

return:                                           ; preds = %lor.end37, %if.then22, %lor.end, %if.then10, %if.then5, %if.then
  %33 = load i1, ptr %retval, align 1
  ret i1 %33
}