; Function Attrs: mustprogress uwtable
define hidden noundef zeroext i1 @_ZN11mpf_manager2ltERK3mpfS2_(ptr noundef nonnull align 8 dereferenceable(840) %this, ptr noundef nonnull align 8 dereferenceable(32) %x, ptr noundef nonnull align 8 dereferenceable(32) %y) local_unnamed_addr #5 align 2 {
entry:
  %exponent.i.i.i = getelementptr inbounds i8, ptr %x, i64 24
  %0 = load i64, ptr %exponent.i.i.i, align 8
  %bf.load.i.i = load i32, ptr %x, align 8
  %bf.clear.i.i = and i32 %bf.load.i.i, 32767
  %m_mpz_manager.i.i.i = getelementptr inbounds i8, ptr %this, i64 728
  %1 = load ptr, ptr %m_mpz_manager.i.i.i, align 8
  %m_powers2.i.i.i = getelementptr inbounds i8, ptr %this, i64 736
  %sub.i.i.i = add nsw i32 %bf.clear.i.i, -1
  %call.i.i.i = tail call noundef nonnull align 8 dereferenceable(16) ptr @_ZN11mpf_manager7powers2clEjb(ptr noundef nonnull align 8 dereferenceable(104) %m_powers2.i.i.i, i32 noundef %sub.i.i.i, i1 noundef zeroext false)
  %call2.i.i.i = tail call noundef i64 @_ZNK11mpz_managerILb0EE9get_int64ERK3mpz(ptr noundef nonnull align 8 dereferenceable(600) %1, ptr noundef nonnull align 8 dereferenceable(16) %call.i.i.i)
  %cmp.i.i = icmp eq i64 %0, %call2.i.i.i
  %significand.i.i = getelementptr inbounds i8, ptr %x, i64 8
  %2 = load i32, ptr %significand.i.i, align 8
  %cmp.i2.i = icmp ne i32 %2, 0
  %3 = select i1 %cmp.i.i, i1 %cmp.i2.i, i1 false
  br i1 %3, label %return, label %lor.lhs.false

lor.lhs.false:                                    ; preds = %entry
  %exponent.i.i.i18 = getelementptr inbounds i8, ptr %y, i64 24
  %4 = load i64, ptr %exponent.i.i.i18, align 8
  %bf.load.i.i19 = load i32, ptr %y, align 8
  %bf.clear.i.i20 = and i32 %bf.load.i.i19, 32767
  %5 = load ptr, ptr %m_mpz_manager.i.i.i, align 8
  %sub.i.i.i23 = add nsw i32 %bf.clear.i.i20, -1
  %call.i.i.i24 = tail call noundef nonnull align 8 dereferenceable(16) ptr @_ZN11mpf_manager7powers2clEjb(ptr noundef nonnull align 8 dereferenceable(104) %m_powers2.i.i.i, i32 noundef %sub.i.i.i23, i1 noundef zeroext false)
  %call2.i.i.i25 = tail call noundef i64 @_ZNK11mpz_managerILb0EE9get_int64ERK3mpz(ptr noundef nonnull align 8 dereferenceable(600) %5, ptr noundef nonnull align 8 dereferenceable(16) %call.i.i.i24)
  %cmp.i.i26 = icmp eq i64 %4, %call2.i.i.i25
  %significand.i.i27 = getelementptr inbounds i8, ptr %y, i64 8
  %6 = load i32, ptr %significand.i.i27, align 8
  %cmp.i2.i28 = icmp ne i32 %6, 0
  %7 = select i1 %cmp.i.i26, i1 %cmp.i2.i28, i1 false
  br i1 %7, label %return, label %if.else

if.else:                                          ; preds = %lor.lhs.false
  %8 = load i64, ptr %exponent.i.i.i, align 8
  %bf.load.i.i30 = load i32, ptr %x, align 8
  %bf.clear.i.i31 = and i32 %bf.load.i.i30, 32767
  %9 = load ptr, ptr %m_mpz_manager.i.i.i, align 8
  %sub.i.i.i34 = add nsw i32 %bf.clear.i.i31, -1
  %call.i.i.i35 = tail call noundef nonnull align 8 dereferenceable(16) ptr @_ZN11mpf_manager7powers22m1Ejb(ptr noundef nonnull align 8 dereferenceable(104) %m_powers2.i.i.i, i32 noundef %sub.i.i.i34, i1 noundef zeroext true)
  %call2.i.i.i36 = tail call noundef i64 @_ZNK11mpz_managerILb0EE9get_int64ERK3mpz(ptr noundef nonnull align 8 dereferenceable(600) %9, ptr noundef nonnull align 8 dereferenceable(16) %call.i.i.i35)
  %cmp.i.i37 = icmp eq i64 %8, %call2.i.i.i36
  %10 = load i32, ptr %significand.i.i, align 8
  %cmp.i2.i39 = icmp eq i32 %10, 0
  %11 = select i1 %cmp.i.i37, i1 %cmp.i2.i39, i1 false
  br i1 %11, label %land.lhs.true, label %if.else6

land.lhs.true:                                    ; preds = %if.else
  %12 = load i64, ptr %exponent.i.i.i18, align 8
  %bf.load.i.i41 = load i32, ptr %y, align 8
  %bf.clear.i.i42 = and i32 %bf.load.i.i41, 32767
  %13 = load ptr, ptr %m_mpz_manager.i.i.i, align 8
  %sub.i.i.i45 = add nsw i32 %bf.clear.i.i42, -1
  %call.i.i.i46 = tail call noundef nonnull align 8 dereferenceable(16) ptr @_ZN11mpf_manager7powers22m1Ejb(ptr noundef nonnull align 8 dereferenceable(104) %m_powers2.i.i.i, i32 noundef %sub.i.i.i45, i1 noundef zeroext true)
  %call2.i.i.i47 = tail call noundef i64 @_ZNK11mpz_managerILb0EE9get_int64ERK3mpz(ptr noundef nonnull align 8 dereferenceable(600) %13, ptr noundef nonnull align 8 dereferenceable(16) %call.i.i.i46)
  %cmp.i.i48 = icmp eq i64 %12, %call2.i.i.i47
  %14 = load i32, ptr %significand.i.i27, align 8
  %cmp.i2.i50 = icmp eq i32 %14, 0
  %15 = select i1 %cmp.i.i48, i1 %cmp.i2.i50, i1 false
  br i1 %15, label %return, label %if.else6

if.else6:                                         ; preds = %land.lhs.true, %if.else
  %bf.load.i = load i32, ptr %x, align 8
  %tobool.i = icmp slt i32 %bf.load.i, 0
  %bf.load.i51 = load i32, ptr %y, align 8
  %tobool.i52 = icmp slt i32 %bf.load.i51, 0
  br i1 %tobool.i, label %if.then8, label %if.else20

if.then8:                                         ; preds = %if.else6
  br i1 %tobool.i52, label %if.else11, label %return

if.else11:                                        ; preds = %if.then8
  %16 = load i64, ptr %exponent.i.i.i18, align 8
  %17 = load i64, ptr %exponent.i.i.i, align 8
  %cmp = icmp slt i64 %16, %17
  br i1 %cmp, label %return, label %lor.rhs

lor.rhs:                                          ; preds = %if.else11
  %cmp16 = icmp eq i64 %16, %17
  br i1 %cmp16, label %land.rhs, label %return

land.rhs:                                         ; preds = %lor.rhs
  %18 = load ptr, ptr %m_mpz_manager.i.i.i, align 8
  %call19 = tail call noundef zeroext i1 @_ZN11mpz_managerILb0EE2ltERK3mpzS3_(ptr noundef nonnull align 8 dereferenceable(600) %18, ptr noundef nonnull align 8 dereferenceable(16) %significand.i.i27, ptr noundef nonnull align 8 dereferenceable(16) %significand.i.i)
  br label %return

if.else20:                                        ; preds = %if.else6
  br i1 %tobool.i52, label %return, label %if.else23

if.else23:                                        ; preds = %if.else20
  %19 = load i64, ptr %exponent.i.i.i, align 8
  %20 = load i64, ptr %exponent.i.i.i18, align 8
  %cmp26 = icmp slt i64 %19, %20
  br i1 %cmp26, label %return, label %lor.rhs27

lor.rhs27:                                        ; preds = %if.else23
  %cmp30 = icmp eq i64 %19, %20
  br i1 %cmp30, label %land.rhs31, label %return

land.rhs31:                                       ; preds = %lor.rhs27
  %21 = load ptr, ptr %m_mpz_manager.i.i.i, align 8
  %call35 = tail call noundef zeroext i1 @_ZN11mpz_managerILb0EE2ltERK3mpzS3_(ptr noundef nonnull align 8 dereferenceable(600) %21, ptr noundef nonnull align 8 dereferenceable(16) %significand.i.i, ptr noundef nonnull align 8 dereferenceable(16) %significand.i.i27)
  br label %return

return:                                           ; preds = %if.else23, %land.rhs31, %lor.rhs27, %if.else20, %if.else11, %land.rhs, %lor.rhs, %if.then8, %land.lhs.true, %entry, %lor.lhs.false
  %retval.0 = phi i1 [ false, %lor.lhs.false ], [ false, %entry ], [ false, %land.lhs.true ], [ true, %if.then8 ], [ true, %if.else11 ], [ false, %lor.rhs ], [ %call19, %land.rhs ], [ false, %if.else20 ], [ true, %if.else23 ], [ false, %lor.rhs27 ], [ %call35, %land.rhs31 ]
  ret i1 %retval.0
}